; Function Attrs: mustprogress uwtable
define hidden void @_Z14WritePropColorPK7aiSceneRN6Assimp3FBX4NodeERKNSt7__cxx1112basic_stringIcSt11char_traitsIcESaIcEEERK10aiVector3tIfE(ptr noundef readonly captures(none) %0, ptr noundef nonnull align 8 dereferenceable(112) %1, ptr noundef nonnull align 8 dereferenceable(32) %2, ptr noundef nonnull readonly align 4 captures(none) dereferenceable(12) %3) local_unnamed_addr #3 {
  %5 = alloca %struct.aiString, align 4
  %6 = getelementptr inbounds nuw i8, ptr %0, i64 112
  %7 = load ptr, ptr %6, align 8
  %.not = icmp eq ptr %7, null
  br i1 %.not, label %37, label %8

8:                                                ; preds = %4
  call void @llvm.lifetime.start.p0(i64 1028, ptr nonnull %5) #34
  %9 = getelementptr inbounds nuw i8, ptr %2, i64 8
  %10 = load i64, ptr %9, align 8
  %11 = trunc i64 %10 to i32
  %12 = getelementptr inbounds nuw i8, ptr %5, i64 4
  call void @llvm.memset.p0.i64(ptr noundef nonnull align 4 dereferenceable(1024) %12, i8 0, i64 1024, i1 false)
  %13 = and i64 %10, 4294966272
  %.not.i.i = icmp eq i64 %13, 0
  %spec.select.i.i = select i1 %.not.i.i, i32 %11, i32 1023
  %14 = load ptr, ptr %2, align 8
  %15 = zext i32 %spec.select.i.i to i64
  call void @llvm.memcpy.p0.p0.i64(ptr nonnull align 4 %12, ptr align 1 %14, i64 %15, i1 false)
  %16 = getelementptr inbounds nuw [1024 x i8], ptr %12, i64 0, i64 %15
  store i8 0, ptr %16, align 1
  %17 = load i32, ptr %7, align 8
  %.not14.not.i.i = icmp eq i32 %17, 0
  br i1 %.not14.not.i.i, label %_ZNK10aiMetadata3GetI10aiVector3tIfEEEbRKNSt7__cxx1112basic_stringIcSt11char_traitsIcESaIcEEERT_.exit.thread, label %.lr.ph.i.i

.lr.ph.i.i:                                       ; preds = %8
  %18 = getelementptr inbounds nuw i8, ptr %7, i64 8
  %19 = load ptr, ptr %18, align 8
  %wide.trip.count.i.i = zext i32 %17 to i64
  br label %20

20:                                               ; preds = %_ZNK8aiStringeqERKS_.exit.thread.i.i, %.lr.ph.i.i
  %indvars.iv.i.i = phi i64 [ 0, %.lr.ph.i.i ], [ %indvars.iv.next.i.i, %_ZNK8aiStringeqERKS_.exit.thread.i.i ]
  %21 = getelementptr inbounds nuw %struct.aiString, ptr %19, i64 %indvars.iv.i.i
  %22 = load i32, ptr %21, align 4
  %23 = icmp eq i32 %22, %spec.select.i.i
  br i1 %23, label %_ZNK8aiStringeqERKS_.exit.i.i, label %_ZNK8aiStringeqERKS_.exit.thread.i.i

_ZNK8aiStringeqERKS_.exit.i.i:                    ; preds = %20
  %24 = getelementptr inbounds nuw i8, ptr %21, i64 4
  %bcmp.i.i.i = call i32 @bcmp(ptr nonnull %24, ptr nonnull %12, i64 %15)
  %25 = icmp eq i32 %bcmp.i.i.i, 0
  br i1 %25, label %26, label %_ZNK8aiStringeqERKS_.exit.thread.i.i

26:                                               ; preds = %_ZNK8aiStringeqERKS_.exit.i.i
  %27 = getelementptr inbounds nuw i8, ptr %7, i64 16
  %28 = load ptr, ptr %27, align 8
  %29 = getelementptr inbounds nuw %struct.aiMetadataEntry, ptr %28, i64 %indvars.iv.i.i
  %30 = load i32, ptr %29, align 8
  %.not7.i.i.i = icmp eq i32 %30, 6
  br i1 %.not7.i.i.i, label %31, label %_ZNK10aiMetadata3GetI10aiVector3tIfEEEbRKNSt7__cxx1112basic_stringIcSt11char_traitsIcESaIcEEERT_.exit.thread

_ZNK8aiStringeqERKS_.exit.thread.i.i:             ; preds = %_ZNK8aiStringeqERKS_.exit.i.i, %20
  %indvars.iv.next.i.i = add nuw nsw i64 %indvars.iv.i.i, 1
  %exitcond.not.i.i = icmp eq i64 %indvars.iv.next.i.i, %wide.trip.count.i.i
  br i1 %exitcond.not.i.i, label %_ZNK10aiMetadata3GetI10aiVector3tIfEEEbRKNSt7__cxx1112basic_stringIcSt11char_traitsIcESaIcEEERT_.exit.thread, label %20, !llvm.loop !249

_ZNK10aiMetadata3GetI10aiVector3tIfEEEbRKNSt7__cxx1112basic_stringIcSt11char_traitsIcESaIcEEERT_.exit.thread: ; preds = %_ZNK8aiStringeqERKS_.exit.thread.i.i, %8, %26
  call void @llvm.lifetime.end.p0(i64 1028, ptr nonnull %5) #34
  br label %37

31:                                               ; preds = %26
  %32 = getelementptr inbounds nuw i8, ptr %29, i64 8
  %33 = load ptr, ptr %32, align 8
  %.sroa.0.0.copyload = load float, ptr %33, align 4
  %.sroa.5.0..sroa_idx = getelementptr inbounds nuw i8, ptr %33, i64 4
  %.sroa.5.0.copyload = load float, ptr %.sroa.5.0..sroa_idx, align 4
  %.sroa.7.0..sroa_idx = getelementptr inbounds nuw i8, ptr %33, i64 8
  %.sroa.7.0.copyload = load float, ptr %.sroa.7.0..sroa_idx, align 4
  call void @llvm.lifetime.end.p0(i64 1028, ptr nonnull %5) #34
  %34 = fpext float %.sroa.0.0.copyload to double
  %35 = fpext float %.sroa.5.0.copyload to double
  %36 = fpext float %.sroa.7.0.copyload to double
  tail call void @_ZN6Assimp3FBX4Node11AddP70colorERKNSt7__cxx1112basic_stringIcSt11char_traitsIcESaIcEEEddd(ptr noundef nonnull align 8 dereferenceable(112) %1, ptr noundef nonnull align 8 dereferenceable(32) %2, double noundef %34, double noundef %35, double noundef %36)
  br label %46

37:                                               ; preds = %_ZNK10aiMetadata3GetI10aiVector3tIfEEEbRKNSt7__cxx1112basic_stringIcSt11char_traitsIcESaIcEEERT_.exit.thread, %4
  %38 = load float, ptr %3, align 4
  %39 = fpext float %38 to double
  %40 = getelementptr inbounds nuw i8, ptr %3, i64 4
  %41 = load float, ptr %40, align 4
  %42 = fpext float %41 to double
  %43 = getelementptr inbounds nuw i8, ptr %3, i64 8
  %44 = load float, ptr %43, align 4
  %45 = fpext float %44 to double
  tail call void @_ZN6Assimp3FBX4Node11AddP70colorERKNSt7__cxx1112basic_stringIcSt11char_traitsIcESaIcEEEddd(ptr noundef nonnull align 8 dereferenceable(112) %1, ptr noundef nonnull align 8 dereferenceable(32) %2, double noundef %39, double noundef %42, double noundef %45)
  br label %46

46:                                               ; preds = %37, %31
  ret void
}